; Function Attrs: nounwind uwtable
define ptr @l_Std_Time_PlainTime_toSeconds(ptr noundef readonly captures(none) %0) local_unnamed_addr #0 {
  %2 = getelementptr inbounds nuw i8, ptr %0, i64 8
  %3 = load ptr, ptr %2, align 8, !tbaa !4
  %4 = load ptr, ptr @l_Std_Time_PlainTime_toSeconds___closed__1, align 8, !tbaa !4
  %5 = ptrtoint ptr %3 to i64
  %6 = and i64 %5, 1
  %.not.i21 = icmp eq i64 %6, 0
  br i1 %.not.i21, label %.critedge.i, label %7, !prof !8

7:                                                ; preds = %1
  %8 = ptrtoint ptr %4 to i64
  %9 = and i64 %8, 1
  %.not7.i = icmp eq i64 %9, 0
  br i1 %.not7.i, label %.critedge.i, label %10, !prof !8

10:                                               ; preds = %7
  %11 = shl i64 %5, 31
  %12 = ashr i64 %11, 32
  %13 = shl i64 %8, 31
  %14 = ashr i64 %13, 32
  %15 = mul nsw i64 %14, %12
  %16 = add nsw i64 %15, 2147483648
  %17 = icmp ult i64 %16, 4294967296
  br i1 %17, label %18, label %23, !prof !14

18:                                               ; preds = %10
  %19 = shl nsw i64 %15, 1
  %20 = and i64 %19, 8589934590
  %21 = or disjoint i64 %20, 1
  %22 = inttoptr i64 %21 to ptr
  br label %lean_int_mul.exit

23:                                               ; preds = %10
  %24 = tail call ptr @lean_big_int64_to_int(i64 noundef range(i64 -4611686016279904256, -9223372036854775808) %15) #4
  br label %lean_int_mul.exit

.critedge.i:                                      ; preds = %7, %1
  %25 = tail call ptr @lean_int_big_mul(ptr noundef %3, ptr noundef %4) #4
  br label %lean_int_mul.exit

lean_int_mul.exit:                                ; preds = %18, %23, %.critedge.i
  %.0.i = phi ptr [ %25, %.critedge.i ], [ %22, %18 ], [ %24, %23 ]
  %26 = getelementptr inbounds nuw i8, ptr %0, i64 16
  %27 = load ptr, ptr %26, align 8, !tbaa !4
  %28 = load ptr, ptr @l_Std_Time_PlainTime_toSeconds___closed__2, align 8, !tbaa !4
  %29 = ptrtoint ptr %27 to i64
  %30 = and i64 %29, 1
  %.not.i22 = icmp eq i64 %30, 0
  br i1 %.not.i22, label %.critedge.i25, label %31, !prof !8

31:                                               ; preds = %lean_int_mul.exit
  %32 = ptrtoint ptr %28 to i64
  %33 = and i64 %32, 1
  %.not7.i23 = icmp eq i64 %33, 0
  br i1 %.not7.i23, label %.critedge.i25, label %34, !prof !8

34:                                               ; preds = %31
  %35 = shl i64 %29, 31
  %36 = ashr i64 %35, 32
  %37 = shl i64 %32, 31
  %38 = ashr i64 %37, 32
  %39 = mul nsw i64 %38, %36
  %40 = add nsw i64 %39, 2147483648
  %41 = icmp ult i64 %40, 4294967296
  br i1 %41, label %42, label %47, !prof !14

42:                                               ; preds = %34
  %43 = shl nsw i64 %39, 1
  %44 = and i64 %43, 8589934590
  %45 = or disjoint i64 %44, 1
  %46 = inttoptr i64 %45 to ptr
  br label %lean_int_mul.exit26

47:                                               ; preds = %34
  %48 = tail call ptr @lean_big_int64_to_int(i64 noundef range(i64 -4611686016279904256, -9223372036854775808) %39) #4
  br label %lean_int_mul.exit26

.critedge.i25:                                    ; preds = %31, %lean_int_mul.exit
  %49 = tail call ptr @lean_int_big_mul(ptr noundef %27, ptr noundef %28) #4
  br label %lean_int_mul.exit26

lean_int_mul.exit26:                              ; preds = %42, %47, %.critedge.i25
  %.0.i24 = phi ptr [ %49, %.critedge.i25 ], [ %46, %42 ], [ %48, %47 ]
  %50 = ptrtoint ptr %.0.i to i64
  %51 = and i64 %50, 1
  %.not.i27 = icmp eq i64 %51, 0
  %.pre42 = ptrtoint ptr %.0.i24 to i64
  %.pre = and i64 %.pre42, 1
  %52 = icmp eq i64 %.pre, 0
  br i1 %.not.i27, label %lean_int_add.exit, label %53, !prof !8

53:                                               ; preds = %lean_int_mul.exit26
  br i1 %52, label %lean_int_add.exit.thread46, label %55, !prof !8

lean_int_add.exit.thread46:                       ; preds = %53
  %54 = tail call ptr @lean_int_big_add(ptr noundef %.0.i, ptr noundef %.0.i24) #4
  br label %71

55:                                               ; preds = %53
  %56 = shl i64 %50, 31
  %57 = ashr i64 %56, 32
  %58 = shl i64 %.pre42, 31
  %59 = ashr i64 %58, 32
  %60 = add nsw i64 %59, %57
  %61 = add nsw i64 %60, 2147483648
  %62 = icmp ult i64 %61, 4294967296
  br i1 %62, label %63, label %68, !prof !14

63:                                               ; preds = %55
  %64 = shl nsw i64 %60, 1
  %65 = and i64 %64, 8589934590
  %66 = or disjoint i64 %65, 1
  %67 = inttoptr i64 %66 to ptr
  br label %lean_dec.exit15

68:                                               ; preds = %55
  %69 = tail call ptr @lean_big_int64_to_int(i64 noundef range(i64 -4611686016279904256, -9223372036854775808) %60) #4
  br label %lean_dec.exit15

lean_int_add.exit:                                ; preds = %lean_int_mul.exit26
  %70 = tail call ptr @lean_int_big_add(ptr noundef %.0.i, ptr noundef %.0.i24) #4
  br i1 %52, label %71, label %lean_dec.exit16.thread

71:                                               ; preds = %lean_int_add.exit.thread46, %lean_int_add.exit
  %72 = phi ptr [ %54, %lean_int_add.exit.thread46 ], [ %70, %lean_int_add.exit ]
  %73 = load i32, ptr %.0.i24, align 4, !tbaa !9
  %74 = icmp sgt i32 %73, 1
  br i1 %74, label %75, label %77, !prof !14

75:                                               ; preds = %71
  %76 = add nsw i32 %73, -1
  store i32 %76, ptr %.0.i24, align 4, !tbaa !9
  br label %lean_dec.exit16

77:                                               ; preds = %71
  %.not.i = icmp eq i32 %73, 0
  br i1 %.not.i, label %lean_dec.exit16, label %78

78:                                               ; preds = %77
  tail call void @lean_dec_ref_cold(ptr noundef nonnull %.0.i24) #4
  br label %lean_dec.exit16

lean_dec.exit16:                                  ; preds = %78, %77, %75
  br i1 %.not.i27, label %lean_dec.exit16.thread, label %lean_dec.exit15

lean_dec.exit16.thread:                           ; preds = %lean_int_add.exit, %lean_dec.exit16
  %.0.i294550 = phi ptr [ %72, %lean_dec.exit16 ], [ %70, %lean_int_add.exit ]
  %79 = load i32, ptr %.0.i, align 4, !tbaa !9
  %80 = icmp sgt i32 %79, 1
  br i1 %80, label %81, label %83, !prof !14

81:                                               ; preds = %lean_dec.exit16.thread
  %82 = add nsw i32 %79, -1
  store i32 %82, ptr %.0.i, align 4, !tbaa !9
  br label %lean_dec.exit15

83:                                               ; preds = %lean_dec.exit16.thread
  %.not.i17 = icmp eq i32 %79, 0
  br i1 %.not.i17, label %lean_dec.exit15, label %84

84:                                               ; preds = %83
  tail call void @lean_dec_ref_cold(ptr noundef nonnull %.0.i) #4
  br label %lean_dec.exit15

lean_dec.exit15:                                  ; preds = %63, %68, %84, %83, %81, %lean_dec.exit16
  %.0.i294549 = phi ptr [ %.0.i294550, %84 ], [ %.0.i294550, %83 ], [ %.0.i294550, %81 ], [ %72, %lean_dec.exit16 ], [ %69, %68 ], [ %67, %63 ]
  %85 = getelementptr inbounds nuw i8, ptr %0, i64 24
  %86 = load ptr, ptr %85, align 8, !tbaa !4
  %87 = ptrtoint ptr %.0.i294549 to i64
  %88 = and i64 %87, 1
  %.not.i31 = icmp eq i64 %88, 0
  br i1 %.not.i31, label %108, label %89, !prof !8

89:                                               ; preds = %lean_dec.exit15
  %90 = ptrtoint ptr %86 to i64
  %91 = and i64 %90, 1
  %.not7.i32 = icmp eq i64 %91, 0
  br i1 %.not7.i32, label %lean_int_add.exit35.thread38, label %93, !prof !8

lean_int_add.exit35.thread38:                     ; preds = %89
  %92 = tail call ptr @lean_int_big_add(ptr noundef %.0.i294549, ptr noundef %86) #4
  br label %lean_dec.exit

93:                                               ; preds = %89
  %94 = shl i64 %87, 31
  %95 = ashr i64 %94, 32
  %96 = shl i64 %90, 31
  %97 = ashr i64 %96, 32
  %98 = add nsw i64 %97, %95
  %99 = add nsw i64 %98, 2147483648
  %100 = icmp ult i64 %99, 4294967296
  br i1 %100, label %101, label %106, !prof !14

101:                                              ; preds = %93
  %102 = shl nsw i64 %98, 1
  %103 = and i64 %102, 8589934590
  %104 = or disjoint i64 %103, 1
  %105 = inttoptr i64 %104 to ptr
  br label %lean_dec.exit

106:                                              ; preds = %93
  %107 = tail call ptr @lean_big_int64_to_int(i64 noundef range(i64 -4611686016279904256, -9223372036854775808) %98) #4
  br label %lean_dec.exit

108:                                              ; preds = %lean_dec.exit15
  %109 = tail call ptr @lean_int_big_add(ptr noundef %.0.i294549, ptr noundef %86) #4
  %110 = load i32, ptr %.0.i294549, align 4, !tbaa !9
  %111 = icmp sgt i32 %110, 1
  br i1 %111, label %112, label %114, !prof !14

112:                                              ; preds = %108
  %113 = add nsw i32 %110, -1
  store i32 %113, ptr %.0.i294549, align 4, !tbaa !9
  br label %lean_dec.exit

114:                                              ; preds = %108
  %.not.i19 = icmp eq i32 %110, 0
  br i1 %.not.i19, label %lean_dec.exit, label %115

115:                                              ; preds = %114
  tail call void @lean_dec_ref_cold(ptr noundef nonnull %.0.i294549) #4
  br label %lean_dec.exit

lean_dec.exit:                                    ; preds = %106, %101, %115, %114, %112, %lean_int_add.exit35.thread38
  %.0.i3337 = phi ptr [ %92, %lean_int_add.exit35.thread38 ], [ %109, %112 ], [ %109, %114 ], [ %109, %115 ], [ %107, %106 ], [ %105, %101 ]
  ret ptr %.0.i3337
}